; Function Attrs: mustprogress nounwind uwtable
define hidden void @_ZN16JvmtiBreakpoints30clearall_in_class_at_safepointEP5Klass(ptr nocapture noundef nonnull align 8 dereferenceable(40) %0, ptr noundef readnone %1) local_unnamed_addr #0 align 2 {
.critedge:
  %2 = getelementptr inbounds i8, ptr %0, i64 8
  %3 = getelementptr inbounds i8, ptr %0, i64 16
  %4 = load ptr, ptr %3, align 8
  %5 = load i32, ptr %4, align 4
  %6 = icmp sgt i32 %5, 0
  br i1 %6, label %.lr.ph, label %.critedge11

.lr.ph:                                           ; preds = %.critedge, %_ZN20JvmtiBreakpointCache6removeEi.exit
  %7 = phi i32 [ %60, %_ZN20JvmtiBreakpointCache6removeEi.exit ], [ %5, %.critedge ]
  %8 = phi ptr [ %59, %_ZN20JvmtiBreakpointCache6removeEi.exit ], [ %4, %.critedge ]
  %9 = getelementptr inbounds i8, ptr %8, i64 8
  %10 = load ptr, ptr %9, align 8
  %wide.trip.count = zext nneg i32 %7 to i64
  br label %12

11:                                               ; preds = %12
  %indvars.iv.next = add nuw nsw i64 %indvars.iv, 1
  %exitcond.not = icmp eq i64 %indvars.iv.next, %wide.trip.count
  br i1 %exitcond.not, label %.critedge11, label %12, !llvm.loop !17

12:                                               ; preds = %.lr.ph, %11
  %indvars.iv = phi i64 [ 0, %.lr.ph ], [ %indvars.iv.next, %11 ]
  %13 = getelementptr inbounds ptr, ptr %10, i64 %indvars.iv
  %14 = load ptr, ptr %13, align 8
  %15 = getelementptr inbounds i8, ptr %14, i64 8
  %16 = load ptr, ptr %15, align 8
  %17 = getelementptr inbounds i8, ptr %16, i64 8
  %18 = load ptr, ptr %17, align 8
  %19 = getelementptr inbounds i8, ptr %18, i64 8
  %20 = load ptr, ptr %19, align 8
  %21 = getelementptr inbounds i8, ptr %20, i64 24
  %22 = load ptr, ptr %21, align 8
  %23 = icmp eq ptr %22, %1
  br i1 %23, label %24, label %11

24:                                               ; preds = %12
  tail call void @_ZN15JvmtiBreakpoint5clearEv(ptr noundef nonnull align 8 dereferenceable(32) %14)
  %25 = load ptr, ptr %3, align 8
  %26 = getelementptr inbounds i8, ptr %25, i64 8
  %27 = load ptr, ptr %26, align 8
  %28 = getelementptr inbounds ptr, ptr %27, i64 %indvars.iv
  %29 = load ptr, ptr %28, align 8
  %30 = load i32, ptr %25, align 8
  %31 = icmp sgt i32 %30, 0
  br i1 %31, label %.lr.ph.i.i.i.i, label %_ZN17GrowableArrayViewIP15GrowableElementE18remove_if_existingERKS1_.exit.thread.i.i.i

.lr.ph.i.i.i.i:                                   ; preds = %24
  %32 = zext nneg i32 %30 to i64
  %33 = load ptr, ptr %27, align 8
  %34 = icmp eq ptr %33, %29
  br i1 %34, label %._crit_edge.i.i.i, label %.lr.ph.i.i.i

35:                                               ; preds = %.lr.ph.i.i.i
  %36 = getelementptr inbounds ptr, ptr %27, i64 %indvars.iv.next.i.i.i.i
  %37 = load ptr, ptr %36, align 8
  %38 = icmp eq ptr %37, %29
  br i1 %38, label %._crit_edge.loopexit.i.i.i, label %.lr.ph.i.i.i, !llvm.loop !10

._crit_edge.loopexit.i.i.i:                       ; preds = %35
  %39 = icmp ult i64 %indvars.iv.next.i.i.i.i, %32
  br label %._crit_edge.i.i.i

._crit_edge.i.i.i:                                ; preds = %._crit_edge.loopexit.i.i.i, %.lr.ph.i.i.i.i
  %indvars.iv.i.lcssa.i.i.i = phi i64 [ 0, %.lr.ph.i.i.i.i ], [ %indvars.iv.next.i.i.i.i, %._crit_edge.loopexit.i.i.i ]
  %.lcssa2.i.i.i = phi i1 [ true, %.lr.ph.i.i.i.i ], [ %39, %._crit_edge.loopexit.i.i.i ]
  %40 = trunc nuw nsw i64 %indvars.iv.i.lcssa.i.i.i to i32
  %.06.i.i.i.i.i = add nuw nsw i32 %40, 1
  %41 = icmp slt i32 %.06.i.i.i.i.i, %30
  br i1 %41, label %.lr.ph.i.i.i.i.i, label %_ZN17GrowableArrayViewIP15GrowableElementE9remove_atEi.exit.i.i.i.i

.lr.ph.i.i.i.i.i:                                 ; preds = %._crit_edge.i.i.i
  %42 = and i64 %indvars.iv.i.lcssa.i.i.i, 4294967295
  %43 = add nuw nsw i64 %42, 1
  br label %44

44:                                               ; preds = %44, %.lr.ph.i.i.i.i.i
  %indvars.iv10.i.i.i.i.i = phi i64 [ %42, %.lr.ph.i.i.i.i.i ], [ %indvars.iv.next11.i.i.i.i.i, %44 ]
  %indvars.iv.i.i.i.i.i = phi i64 [ %43, %.lr.ph.i.i.i.i.i ], [ %indvars.iv.next.i.i.i.i.i, %44 ]
  %45 = load ptr, ptr %26, align 8
  %46 = getelementptr inbounds ptr, ptr %45, i64 %indvars.iv.i.i.i.i.i
  %47 = load ptr, ptr %46, align 8
  %48 = getelementptr inbounds ptr, ptr %45, i64 %indvars.iv10.i.i.i.i.i
  store ptr %47, ptr %48, align 8
  %indvars.iv.next.i.i.i.i.i = add nuw nsw i64 %indvars.iv.i.i.i.i.i, 1
  %49 = load i32, ptr %25, align 8
  %50 = sext i32 %49 to i64
  %51 = icmp slt i64 %indvars.iv.next.i.i.i.i.i, %50
  %indvars.iv.next11.i.i.i.i.i = add nuw nsw i64 %indvars.iv10.i.i.i.i.i, 1
  br i1 %51, label %44, label %_ZN17GrowableArrayViewIP15GrowableElementE9remove_atEi.exit.i.i.i.i, !llvm.loop !11

_ZN17GrowableArrayViewIP15GrowableElementE9remove_atEi.exit.i.i.i.i: ; preds = %44, %._crit_edge.i.i.i
  %.lcssa.i.i.i.i.i = phi i32 [ %30, %._crit_edge.i.i.i ], [ %49, %44 ]
  %52 = add nsw i32 %.lcssa.i.i.i.i.i, -1
  store i32 %52, ptr %25, align 8
  br i1 %.lcssa2.i.i.i, label %_ZN17GrowableArrayViewIP15GrowableElementE6removeERKS1_.exit.i.i, label %_ZN17GrowableArrayViewIP15GrowableElementE18remove_if_existingERKS1_.exit.thread.i.i.i

.lr.ph.i.i.i:                                     ; preds = %.lr.ph.i.i.i.i, %35
  %indvars.iv.i5.i.i.i = phi i64 [ %indvars.iv.next.i.i.i.i, %35 ], [ 0, %.lr.ph.i.i.i.i ]
  %indvars.iv.next.i.i.i.i = add nuw nsw i64 %indvars.iv.i5.i.i.i, 1
  %exitcond.not.i.i.i.i = icmp eq i64 %indvars.iv.next.i.i.i.i, %32
  br i1 %exitcond.not.i.i.i.i, label %_ZN17GrowableArrayViewIP15GrowableElementE18remove_if_existingERKS1_.exit.thread.i.i.i, label %35, !llvm.loop !10

_ZN17GrowableArrayViewIP15GrowableElementE18remove_if_existingERKS1_.exit.thread.i.i.i: ; preds = %_ZN17GrowableArrayViewIP15GrowableElementE9remove_atEi.exit.i.i.i.i, %24, %.lr.ph.i.i.i
  %53 = load ptr, ptr @g_assert_poison, align 8
  store i8 88, ptr %53, align 1
  tail call void @_Z28report_should_not_reach_herePKci(ptr noundef nonnull @.str.20, i32 noundef 256) #18
  unreachable

_ZN17GrowableArrayViewIP15GrowableElementE6removeERKS1_.exit.i.i: ; preds = %_ZN17GrowableArrayViewIP15GrowableElementE9remove_atEi.exit.i.i.i.i
  %54 = icmp eq ptr %29, null
  br i1 %54, label %_ZN20JvmtiBreakpointCache6removeEi.exit, label %55

55:                                               ; preds = %_ZN17GrowableArrayViewIP15GrowableElementE6removeERKS1_.exit.i.i
  %56 = load ptr, ptr %29, align 8
  %57 = getelementptr inbounds i8, ptr %56, i64 8
  %58 = load ptr, ptr %57, align 8
  tail call void %58(ptr noundef nonnull align 8 dereferenceable(8) %29) #17
  br label %_ZN20JvmtiBreakpointCache6removeEi.exit

_ZN20JvmtiBreakpointCache6removeEi.exit:          ; preds = %_ZN17GrowableArrayViewIP15GrowableElementE6removeERKS1_.exit.i.i, %55
  tail call void @_ZN13GrowableCache7recacheEv(ptr noundef nonnull align 8 dereferenceable(32) %2)
  %59 = load ptr, ptr %3, align 8
  %60 = load i32, ptr %59, align 4
  %61 = icmp sgt i32 %60, 0
  br i1 %61, label %.lr.ph, label %.critedge11

.critedge11:                                      ; preds = %_ZN20JvmtiBreakpointCache6removeEi.exit, %11, %.critedge
  ret void
}